target datalayout = "e-m:e-p270:32:32-p271:32:32-p272:64:64-i64:64-i128:128-f80:128-n8:16:32:64-S128"
target triple = "x86_64-pc-linux-gnu"

%struct.WOLFSSL = type <{ ptr, ptr, ptr, ptr, [48 x i8], [48 x i8], ptr, ptr, ptr, ptr, ptr, ptr, ptr, ptr, ptr, ptr, ptr, ptr, ptr, i32, [4 x i8], %struct.WOLFSSL_CIPHER, ptr, %struct.Ciphers, %struct.Ciphers, [8 x i8], %struct.Buffers, ptr, ptr, %struct.WOLFSSL_ALERT_HISTORY, %struct.WOLFSSL_ALERT, i32, i32, i32, i32, i32, i32, i32, i16, [2 x i8], i32, i8, %struct.RecordLayerHeader, %struct.MsgsReceived, %struct.ProtocolVersion, %struct.ProtocolVersion, %struct.CipherSpecs, [2 x i8], %struct.Keys, %struct.Options, ptr, i8, i8, i16, [10 x i16], i8, i8, i16, i16, [38 x i8], i32, i32, [4 x i8], ptr, i8, i8, [6 x i8], ptr, ptr, i16, i8, i8, i32, i8, [3 x i8], i32, %struct.OneTimeAuth, ptr }>
%struct.WOLFSSL_CIPHER = type { i8, i8, ptr }
%struct.Ciphers = type { ptr, ptr, ptr, ptr, i8, i8 }
%struct.Buffers = type { %struct.bufferStatic, %struct.bufferStatic, %struct.WOLFSSL_BUFFER_INFO, %struct.WOLFSSL_BUFFER_INFO, %struct.WOLFSSL_BUFFER_INFO, %struct.WOLFSSL_BUFFER_INFO, i32, i32, i8, i8, i8, i8, %struct.WOLFSSL_BUFFER_INFO, %struct.WOLFSSL_BUFFER_INFO, %struct.WOLFSSL_BUFFER_INFO, %struct.WOLFSSL_BUFFER_INFO, ptr, ptr, ptr, i8, i8, i32, i32, ptr, i32, [1 x ptr] }
%struct.bufferStatic = type { [5 x i8], ptr, i32, i32, i32, i8, i8 }
%struct.WOLFSSL_BUFFER_INFO = type { ptr, i32 }
%struct.WOLFSSL_ALERT_HISTORY = type { %struct.WOLFSSL_ALERT, %struct.WOLFSSL_ALERT }
%struct.WOLFSSL_ALERT = type { i32, i32 }
%struct.RecordLayerHeader = type { i8, i8, i8, [2 x i8] }
%struct.MsgsReceived = type { i32 }
%struct.ProtocolVersion = type { i8, i8 }
%struct.CipherSpecs = type { i16, i16, i16, i16, i8, i8, i8, i8, i8, i8, i8, i8 }
%struct.Keys = type { [64 x i8], [64 x i8], [32 x i8], [32 x i8], [16 x i8], [16 x i8], [8 x i8], [12 x i8], [12 x i8], i32, i32, i32, i32, i32, i32, i8, i8, i8, i8 }
%struct.Options = type { i64, i64, i8, i8, i8, i8, i8, i8, i8, i8, i8, i8, i8, i8, i8, i8, i8, i8, i8, i8, i8, i8, i8, i16, i16, i16, i16, i16, i8 }
%struct.OneTimeAuth = type { ptr, i8 }

; Function Attrs: inlinehint nounwind uwtable
define internal void @ato16(ptr noundef %0, ptr noundef %1) #4 {
  %3 = alloca ptr, align 8
  %4 = alloca ptr, align 8
  store ptr %0, ptr %3, align 8, !tbaa !8
  store ptr %1, ptr %4, align 8, !tbaa !147
  %5 = load ptr, ptr %3, align 8, !tbaa !8
  %6 = getelementptr inbounds i8, ptr %5, i64 0
  %7 = load i8, ptr %6, align 1, !tbaa !58
  %8 = zext i8 %7 to i32
  %9 = shl i32 %8, 8
  %10 = load ptr, ptr %3, align 8, !tbaa !8
  %11 = getelementptr inbounds i8, ptr %10, i64 1
  %12 = load i8, ptr %11, align 1, !tbaa !58
  %13 = zext i8 %12 to i32
  %14 = or i32 %9, %13
  %15 = trunc i32 %14 to i16
  %16 = load ptr, ptr %4, align 8, !tbaa !147
  store i16 %15, ptr %16, align 2, !tbaa !66
  ret void
}

; Function Attrs: nounwind uwtable
define internal i32 @DoTls13EncryptedExtensions(ptr noundef %0, ptr noundef %1, ptr noundef %2, i32 noundef %3) #0 {
  %5 = alloca i32, align 4
  %6 = alloca ptr, align 8
  %7 = alloca ptr, align 8
  %8 = alloca ptr, align 8
  %9 = alloca i32, align 4
  %10 = alloca i32, align 4
  %11 = alloca i32, align 4
  %12 = alloca i32, align 4
  %13 = alloca i16, align 2
  %14 = alloca i32, align 4
  store ptr %0, ptr %6, align 8, !tbaa !3
  store ptr %1, ptr %7, align 8, !tbaa !8
  store ptr %2, ptr %8, align 8, !tbaa !125
  store i32 %3, ptr %9, align 4, !tbaa !10
  call void @llvm.lifetime.start.p0(i64 4, ptr %10) #8
  call void @llvm.lifetime.start.p0(i64 4, ptr %11) #8
  %15 = load ptr, ptr %8, align 8, !tbaa !125
  %16 = load i32, ptr %15, align 4, !tbaa !10
  store i32 %16, ptr %11, align 4, !tbaa !10
  call void @llvm.lifetime.start.p0(i64 4, ptr %12) #8
  %17 = load i32, ptr %11, align 4, !tbaa !10
  store i32 %17, ptr %12, align 4, !tbaa !10
  call void @llvm.lifetime.start.p0(i64 2, ptr %13) #8
  br label %18

18:                                               ; preds = %4
  br label %19

19:                                               ; preds = %18
  br label %20

20:                                               ; preds = %19
  br label %21

21:                                               ; preds = %20
  br label %22

22:                                               ; preds = %21
  br label %23

23:                                               ; preds = %22
  %24 = load i32, ptr %9, align 4, !tbaa !10
  %25 = icmp ult i32 %24, 2
  br i1 %25, label %26, label %27

26:                                               ; preds = %23
  store i32 -328, ptr %5, align 4
  store i32 1, ptr %14, align 4
  br label %77

27:                                               ; preds = %23
  %28 = load ptr, ptr %7, align 8, !tbaa !8
  %29 = load i32, ptr %12, align 4, !tbaa !10
  %30 = zext i32 %29 to i64
  %31 = getelementptr inbounds nuw i8, ptr %28, i64 %30
  call void @ato16(ptr noundef %31, ptr noundef %13)
  %32 = load i32, ptr %12, align 4, !tbaa !10
  %33 = add i32 %32, 2
  store i32 %33, ptr %12, align 4, !tbaa !10
  %34 = load i32, ptr %12, align 4, !tbaa !10
  %35 = load i32, ptr %11, align 4, !tbaa !10
  %36 = sub i32 %34, %35
  %37 = load i16, ptr %13, align 2, !tbaa !66
  %38 = zext i16 %37 to i32
  %39 = add i32 %36, %38
  %40 = load i32, ptr %9, align 4, !tbaa !10
  %41 = icmp ugt i32 %39, %40
  br i1 %41, label %42, label %43

42:                                               ; preds = %27
  store i32 -328, ptr %5, align 4
  store i32 1, ptr %14, align 4
  br label %77

43:                                               ; preds = %27
  %44 = load ptr, ptr %6, align 8, !tbaa !3
  %45 = load ptr, ptr %7, align 8, !tbaa !8
  %46 = load i32, ptr %12, align 4, !tbaa !10
  %47 = zext i32 %46 to i64
  %48 = getelementptr inbounds nuw i8, ptr %45, i64 %47
  %49 = load i16, ptr %13, align 2, !tbaa !66
  %50 = call i32 @TLSX_Parse(ptr noundef %44, ptr noundef %48, i16 noundef zeroext %49, i8 noundef zeroext 8, ptr noundef null)
  store i32 %50, ptr %10, align 4, !tbaa !10
  %51 = icmp ne i32 %50, 0
  br i1 %51, label %52, label %54

52:                                               ; preds = %43
  %53 = load i32, ptr %10, align 4, !tbaa !10
  store i32 %53, ptr %5, align 4
  store i32 1, ptr %14, align 4
  br label %77

54:                                               ; preds = %43
  %55 = load i32, ptr %12, align 4, !tbaa !10
  %56 = load i16, ptr %13, align 2, !tbaa !66
  %57 = zext i16 %56 to i32
  %58 = add i32 %55, %57
  %59 = load ptr, ptr %8, align 8, !tbaa !125
  store i32 %58, ptr %59, align 4, !tbaa !10
  %60 = load ptr, ptr %6, align 8, !tbaa !3
  %61 = getelementptr inbounds nuw %struct.WOLFSSL, ptr %60, i32 0, i32 48
  %62 = getelementptr inbounds nuw %struct.Keys, ptr %61, i32 0, i32 14
  %63 = load i32, ptr %62, align 4, !tbaa !159
  %64 = load ptr, ptr %8, align 8, !tbaa !125
  %65 = load i32, ptr %64, align 4, !tbaa !10
  %66 = add i32 %65, %63
  store i32 %66, ptr %64, align 4, !tbaa !10
  %67 = load ptr, ptr %6, align 8, !tbaa !3
  %68 = getelementptr inbounds nuw %struct.WOLFSSL, ptr %67, i32 0, i32 49
  %69 = getelementptr inbounds nuw %struct.Options, ptr %68, i32 0, i32 13
  store i8 4, ptr %69, align 1, !tbaa !143
  br label %70

70:                                               ; preds = %54
  br label %71

71:                                               ; preds = %70
  br label %72

72:                                               ; preds = %71
  br label %73

73:                                               ; preds = %72
  br label %74

74:                                               ; preds = %73
  br label %75

75:                                               ; preds = %74
  %76 = load i32, ptr %10, align 4, !tbaa !10
  store i32 %76, ptr %5, align 4
  store i32 1, ptr %14, align 4
  br label %77

77:                                               ; preds = %75, %52, %42, %26
  call void @llvm.lifetime.end.p0(i64 2, ptr %13) #8
  call void @llvm.lifetime.end.p0(i64 4, ptr %12) #8
  call void @llvm.lifetime.end.p0(i64 4, ptr %11) #8
  call void @llvm.lifetime.end.p0(i64 4, ptr %10) #8
  %78 = load i32, ptr %5, align 4
  ret i32 %78
}