; Function Attrs: nounwind uwtable
define internal fastcc i32 @DoTls13EncryptedExtensions(ptr noundef %0, ptr noundef %1, ptr noundef captures(none) %2, i32 noundef %3) unnamed_addr #0 {
  %5 = icmp ult i32 %3, 2
  br i1 %5, label %29, label %6

6:                                                ; preds = %4
  %7 = load i32, ptr %2, align 4, !tbaa !109
  %8 = zext i32 %7 to i64
  %9 = getelementptr inbounds nuw i8, ptr %1, i64 %8
  %.val = load i8, ptr %9, align 1, !tbaa !57
  %10 = getelementptr i8, ptr %9, i64 1
  %.val21 = load i8, ptr %10, align 1, !tbaa !57
  %11 = zext i8 %.val to i16
  %12 = shl nuw i16 %11, 8
  %13 = zext i8 %.val21 to i16
  %14 = or disjoint i16 %12, %13
  %15 = add i32 %7, 2
  %16 = zext i16 %14 to i32
  %17 = add nuw nsw i32 %16, 2
  %18 = icmp ugt i32 %17, %3
  br i1 %18, label %29, label %19

19:                                               ; preds = %6
  %20 = zext i32 %15 to i64
  %21 = getelementptr inbounds nuw i8, ptr %1, i64 %20
  %22 = tail call i32 @TLSX_Parse(ptr noundef %0, ptr noundef %21, i16 noundef zeroext %14, i8 noundef zeroext 8, ptr noundef null) #11
  %.not = icmp eq i32 %22, 0
  br i1 %.not, label %23, label %29

23:                                               ; preds = %19
  %24 = add i32 %15, %16
  store i32 %24, ptr %2, align 4, !tbaa !109
  %25 = getelementptr inbounds nuw i8, ptr %0, i64 1008
  %26 = load i32, ptr %25, align 4, !tbaa !123
  %27 = add i32 %26, %24
  store i32 %27, ptr %2, align 4, !tbaa !109
  %28 = getelementptr inbounds nuw i8, ptr %0, i64 1043
  store i8 4, ptr %28, align 1, !tbaa !114
  br label %29

29:                                               ; preds = %19, %6, %4, %23
  %.0 = phi i32 [ 0, %23 ], [ -328, %4 ], [ -328, %6 ], [ %22, %19 ]
  ret i32 %.0
}